   1              		.section .mdebug.abi32
   2              		.previous
   3              		.gnu_attribute 4, 1
   4              		.text
   5              	$Ltext0:
   6              		.cfi_sections	.debug_frame
   7              		.globl	int_t
   8              		.section	.bss,"aw",@nobits
   9              		.align	2
  12              	int_t:
  13 0000 00000000 		.space	4
  14              		.globl	interrupt_counter_it0
  15              		.align	2
  18              	interrupt_counter_it0:
  19 0004 00000000 		.space	4
  20              		.globl	interrupt_counter_it1
  21              		.align	2
  24              	interrupt_counter_it1:
  25 0008 00000000 		.space	4
  26              		.globl	ExitStatus
  27              		.data
  28              		.align	2
  31              	ExitStatus:
  32 0000 03000000 		.word	3
  33              		.text
  34              		.align	2
  35              		.globl	int_handler
  36              	$LFB0 = .
  37              		.file 1 "../main.c"
   1:../main.c     **** /****************************************************************
   2:../main.c     ****  *                  SIMPLE_INTERRUPT_ITIMER_FLASH               *
   3:../main.c     ****  * –î–µ–º–æ–Ω—Å—Ç—Ä–∏—Ä—É–µ—Ç –æ–±—Ä–∞–±–æ—Ç–∫—É –ø—Ä–µ—Ä—ã–≤–∞–Ω–∏–π –æ—Ç –∏–Ω—Ç–µ—Ä–≤–∞–ª—å–Ω–æ–≥
   4:../main.c     ****  * –í –∫–æ–Ω—Ü–µ –ø—Ä–æ–≥—Ä–∞–º–º—ã –∑–Ω–∞—á–µ–Ω–∏–µ interrupt_counter                 *
   5:../main.c     ****  * –¥–æ–ª–∂–Ω–æ –±—ã—Ç—å —Ä–∞–≤–Ω—ã–º 10                                        *
   6:../main.c     ****  * ExitStatus = 0;                                              *
   7:../main.c     ****  ***************************************************************/
   8:../main.c     **** //#define TARGET_MC24R
   9:../main.c     **** //#define TARGET_MC0428
  10:../main.c     **** 
  11:../main.c     **** //#define TARGET_MCT03P
  12:../main.c     **** //#define TARGET_MCT04
  13:../main.c     **** //#define TARGET_MCT05
  14:../main.c     **** //#define TARGET_MCT06
  15:../main.c     **** //#define TARGET_MCT08
  16:../main.c     **** 
  17:../main.c     **** #include "risc_runtime/cpu.h"
  18:../main.c     **** #include "risc_runtime/risc_interrupt.h"
  19:../main.c     **** #include "risc_runtime/risc_timer.h"
  20:../main.c     **** #include "risc_runtime/erlcommon.h"
  21:../main.c     **** 
  22:../main.c     **** #define LDAT7 (1<<9) //–∑–Ω–∞—á–µ–Ω–∏–µ –¥–ª—è –ø–µ—Ä–µ–≤–æ–¥–∞ –∫–∞–Ω–∞–ª–∞ –≤ —Ä–µ–∂–∏–º –≤—ã–≤–æ
  23:../main.c     **** enum IT
  24:../main.c     **** {
  25:../main.c     **** 	IT0,
  26:../main.c     **** 	IT1
  27:../main.c     **** };
  28:../main.c     **** 
  29:../main.c     **** RISC_INTERRUPT_TYPE int_t = INTH_80000180;
  30:../main.c     **** 
  31:../main.c     **** 
  32:../main.c     **** int interrupt_counter_it0 = 0;
  33:../main.c     **** int interrupt_counter_it1 = 0;
  34:../main.c     **** int ExitStatus = 3;
  35:../main.c     **** 
  36:../main.c     **** void flash_interrupt_on();
  37:../main.c     **** 
  38:../main.c     **** void int_handler(int a) 
  39:../main.c     **** {
  38              		.loc 1 39 0
  39              		.cfi_startproc
  40              		.set	nomips16
  41              		.ent	int_handler
  43              	int_handler:
  44              		.frame	$fp,24,$31		# vars= 0, regs= 2/0, args= 16, gp= 0
  45              		.mask	0xc0000000,-4
  46              		.fmask	0x00000000,0
  47              		.set	noreorder
  48              		.set	nomacro
  49 0000 E8FFBD27 		addiu	$sp,$sp,-24
  50              	$LCFI0 = .
  51              		.cfi_def_cfa_offset 24
  52 0004 1400BFAF 		sw	$31,20($sp)
  53 0008 1000BEAF 		sw	$fp,16($sp)
  54              		.cfi_offset 31, -4
  55              		.cfi_offset 30, -8
  56 000c 25F0A003 		move	$fp,$sp
  57              	$LCFI1 = .
  58              		.cfi_def_cfa_register 30
  59 0010 1800C4AF 		sw	$4,24($fp)
  40:../main.c     **** 
  41:../main.c     **** 	if ( (ITCSR0 & 2) == 2 ){
  60              		.loc 1 41 0
  61 0014 2FB8023C 		li	$2,-1204879360			# 0xffffffffb82f0000
  62 0018 20504234 		ori	$2,$2,0x5020
  63 001c 0000428C 		lw	$2,0($2)
  64 0020 00000000 		nop
  65 0024 02004230 		andi	$2,$2,0x2
  66 0028 11004010 		beq	$2,$0,$L2
  67 002c 00000000 		nop
  68              	
  42:../main.c     **** 		ITCSR0 &= ~(2);
  69              		.loc 1 42 0
  70 0030 2FB8023C 		li	$2,-1204879360			# 0xffffffffb82f0000
  71 0034 20504234 		ori	$2,$2,0x5020
  72 0038 2FB8033C 		li	$3,-1204879360			# 0xffffffffb82f0000
  73 003c 20506334 		ori	$3,$3,0x5020
  74 0040 0000648C 		lw	$4,0($3)
  75 0044 FDFF0324 		li	$3,-3			# 0xfffffffffffffffd
  76 0048 24188300 		and	$3,$4,$3
  77 004c 000043AC 		sw	$3,0($2)
  43:../main.c     **** 		flash_interrupt_on();
  78              		.loc 1 43 0
  79 0050 0000000C 		jal	flash_interrupt_on
  80 0054 00000000 		nop
  81              	
  44:../main.c     **** 		interrupt_counter_it0++;
  82              		.loc 1 44 0
  83 0058 0000023C 		lui	$2,%hi(interrupt_counter_it0)
  84 005c 0000428C 		lw	$2,%lo(interrupt_counter_it0)($2)
  85 0060 00000000 		nop
  86 0064 01004324 		addiu	$3,$2,1
  87 0068 0000023C 		lui	$2,%hi(interrupt_counter_it0)
  88 006c 000043AC 		sw	$3,%lo(interrupt_counter_it0)($2)
  89              	$L2:
  45:../main.c     **** 	}
  46:../main.c     **** 	return;
  90              		.loc 1 46 0
  91 0070 00000000 		nop
  47:../main.c     **** }
  92              		.loc 1 47 0
  93 0074 25E8C003 		move	$sp,$fp
  94              	$LCFI2 = .
  95              		.cfi_def_cfa_register 29
  96 0078 1400BF8F 		lw	$31,20($sp)
  97 007c 1000BE8F 		lw	$fp,16($sp)
  98 0080 1800BD27 		addiu	$sp,$sp,24
  99              	$LCFI3 = .
 100              		.cfi_restore 30
 101              		.cfi_restore 31
 102              		.cfi_def_cfa_offset 0
 103 0084 0800E003 		j	$31
 104 0088 00000000 		nop
 105              	
 106              		.set	macro
 107              		.set	reorder
 108              		.end	int_handler
 109              		.cfi_endproc
 110              	$LFE0:
 112              		.align	2
 113              		.globl	flash_interrupt_off
 114              	$LFB1 = .
  48:../main.c     **** 
  49:../main.c     **** void flash_interrupt_off()
  50:../main.c     **** {
 115              		.loc 1 50 0
 116              		.cfi_startproc
 117              		.set	nomips16
 118              		.ent	flash_interrupt_off
 120              	flash_interrupt_off:
 121              		.frame	$fp,24,$31		# vars= 0, regs= 2/0, args= 16, gp= 0
 122              		.mask	0xc0000000,-4
 123              		.fmask	0x00000000,0
 124              		.set	noreorder
 125              		.set	nomacro
 126 008c E8FFBD27 		addiu	$sp,$sp,-24
 127              	$LCFI4 = .
 128              		.cfi_def_cfa_offset 24
 129 0090 1400BFAF 		sw	$31,20($sp)
 130 0094 1000BEAF 		sw	$fp,16($sp)
 131              		.cfi_offset 31, -4
 132              		.cfi_offset 30, -8
 133 0098 25F0A003 		move	$fp,$sp
 134              	$LCFI5 = .
 135              		.cfi_def_cfa_register 30
  51:../main.c     **** 	// turn the led off
  52:../main.c     **** 	risc_it_stop(IT1);
 136              		.loc 1 52 0
 137 009c 01000424 		li	$4,1			# 0x1
 138 00a0 0000000C 		jal	risc_it_stop
 139 00a4 00000000 		nop
 140              	
  53:../main.c     **** 	ITCSR1 &= ~(2);
 141              		.loc 1 53 0
 142 00a8 2FB8023C 		li	$2,-1204879360			# 0xffffffffb82f0000
 143 00ac 00504234 		ori	$2,$2,0x5000
 144 00b0 2FB8033C 		li	$3,-1204879360			# 0xffffffffb82f0000
 145 00b4 00506334 		ori	$3,$3,0x5000
 146 00b8 0000648C 		lw	$4,0($3)
 147 00bc FDFF0324 		li	$3,-3			# 0xfffffffffffffffd
 148 00c0 24188300 		and	$3,$4,$3
 149 00c4 000043AC 		sw	$3,0($2)
  54:../main.c     **** 
  55:../main.c     **** 	MFBSP3_GPIO &= ~(LDAT7);
 150              		.loc 1 55 0
 151 00c8 2FB8023C 		li	$2,-1204879360			# 0xffffffffb82f0000
 152 00cc 0C734234 		ori	$2,$2,0x730c
 153 00d0 2FB8033C 		li	$3,-1204879360			# 0xffffffffb82f0000
 154 00d4 0C736334 		ori	$3,$3,0x730c
 155 00d8 0000648C 		lw	$4,0($3)
 156 00dc FFFD0324 		li	$3,-513			# 0xfffffffffffffdff
 157 00e0 24188300 		and	$3,$4,$3
 158 00e4 000043AC 		sw	$3,0($2)
  56:../main.c     **** 
  57:../main.c     **** 	interrupt_counter_it1++;
 159              		.loc 1 57 0
 160 00e8 0000023C 		lui	$2,%hi(interrupt_counter_it1)
 161 00ec 0000428C 		lw	$2,%lo(interrupt_counter_it1)($2)
 162 00f0 00000000 		nop
 163 00f4 01004324 		addiu	$3,$2,1
 164 00f8 0000023C 		lui	$2,%hi(interrupt_counter_it1)
 165 00fc 000043AC 		sw	$3,%lo(interrupt_counter_it1)($2)
  58:../main.c     **** 	return;
 166              		.loc 1 58 0
 167 0100 00000000 		nop
  59:../main.c     **** }
 168              		.loc 1 59 0
 169 0104 25E8C003 		move	$sp,$fp
 170              	$LCFI6 = .
 171              		.cfi_def_cfa_register 29
 172 0108 1400BF8F 		lw	$31,20($sp)
 173 010c 1000BE8F 		lw	$fp,16($sp)
 174 0110 1800BD27 		addiu	$sp,$sp,24
 175              	$LCFI7 = .
 176              		.cfi_restore 30
 177              		.cfi_restore 31
 178              		.cfi_def_cfa_offset 0
 179 0114 0800E003 		j	$31
 180 0118 00000000 		nop
 181              	
 182              		.set	macro
 183              		.set	reorder
 184              		.end	flash_interrupt_off
 185              		.cfi_endproc
 186              	$LFE1:
 188              		.align	2
 189              		.globl	flash_interrupt_on
 190              	$LFB2 = .
  60:../main.c     **** 
  61:../main.c     **** void flash_interrupt_on()
  62:../main.c     **** {
 191              		.loc 1 62 0
 192              		.cfi_startproc
 193              		.set	nomips16
 194              		.ent	flash_interrupt_on
 196              	flash_interrupt_on:
 197              		.frame	$fp,32,$31		# vars= 8, regs= 2/0, args= 16, gp= 0
 198              		.mask	0xc0000000,-4
 199              		.fmask	0x00000000,0
 200              		.set	noreorder
 201              		.set	nomacro
 202 011c E0FFBD27 		addiu	$sp,$sp,-32
 203              	$LCFI8 = .
 204              		.cfi_def_cfa_offset 32
 205 0120 1C00BFAF 		sw	$31,28($sp)
 206 0124 1800BEAF 		sw	$fp,24($sp)
 207              		.cfi_offset 31, -4
 208              		.cfi_offset 30, -8
 209 0128 25F0A003 		move	$fp,$sp
 210              	$LCFI9 = .
 211              		.cfi_def_cfa_register 30
  63:../main.c     **** 	// turn on the led
  64:../main.c     **** 	MFBSP3_DIR = LDAT7;
 212              		.loc 1 64 0
 213 012c 2FB8023C 		li	$2,-1204879360			# 0xffffffffb82f0000
 214 0130 08734234 		ori	$2,$2,0x7308
 215 0134 00020324 		li	$3,512			# 0x200
 216 0138 000043AC 		sw	$3,0($2)
  65:../main.c     **** 	int period = (unsigned int) 0x7fff;
 217              		.loc 1 65 0
 218 013c FF7F0224 		li	$2,32767			# 0x7fff
 219 0140 1000C2AF 		sw	$2,16($fp)
  66:../main.c     **** 
  67:../main.c     **** 	MFBSP3_GPIO = LDAT7;
 220              		.loc 1 67 0
 221 0144 2FB8023C 		li	$2,-1204879360			# 0xffffffffb82f0000
 222 0148 0C734234 		ori	$2,$2,0x730c
 223 014c 00020324 		li	$3,512			# 0x200
 224 0150 000043AC 		sw	$3,0($2)
  68:../main.c     **** 
  69:../main.c     **** 	// setup the time
  70:../main.c     **** 	risc_it_setup(0x1fff, 2, IT1);
 225              		.loc 1 70 0
 226 0154 FF1F0424 		li	$4,8191			# 0x1fff
 227 0158 02000524 		li	$5,2			# 0x2
 228 015c 01000624 		li	$6,1			# 0x1
 229 0160 0000000C 		jal	risc_it_setup
 230 0164 00000000 		nop
 231              	
  71:../main.c     **** 	risc_it_start(IT1);
 232              		.loc 1 71 0
 233 0168 01000424 		li	$4,1			# 0x1
 234 016c 0000000C 		jal	risc_it_start
 235 0170 00000000 		nop
 236              	
  72:../main.c     **** 	return;
 237              		.loc 1 72 0
 238 0174 00000000 		nop
  73:../main.c     **** }
 239              		.loc 1 73 0
 240 0178 25E8C003 		move	$sp,$fp
 241              	$LCFI10 = .
 242              		.cfi_def_cfa_register 29
 243 017c 1C00BF8F 		lw	$31,28($sp)
 244 0180 1800BE8F 		lw	$fp,24($sp)
 245 0184 2000BD27 		addiu	$sp,$sp,32
 246              	$LCFI11 = .
 247              		.cfi_restore 30
 248              		.cfi_restore 31
 249              		.cfi_def_cfa_offset 0
 250 0188 0800E003 		j	$31
 251 018c 00000000 		nop
 252              	
 253              		.set	macro
 254              		.set	reorder
 255              		.end	flash_interrupt_on
 256              		.cfi_endproc
 257              	$LFE2:
 259              		.align	2
 260              		.globl	SetCP0_Status
 261              	$LFB3 = .
  74:../main.c     **** 
  75:../main.c     **** void SetCP0_Status(unsigned int value) {
 262              		.loc 1 75 0
 263              		.cfi_startproc
 264              		.set	nomips16
 265              		.ent	SetCP0_Status
 267              	SetCP0_Status:
 268              		.frame	$fp,8,$31		# vars= 0, regs= 1/0, args= 0, gp= 0
 269              		.mask	0x40000000,-4
 270              		.fmask	0x00000000,0
 271 0190 F8FFBD27 		addiu	$sp,$sp,-8
 272              	$LCFI12 = .
 273              		.cfi_def_cfa_offset 8
 274 0194 0400BEAF 		sw	$fp,4($sp)
 275              		.cfi_offset 30, -4
 276 0198 25F0A003 		move	$fp,$sp
 277              	$LCFI13 = .
 278              		.cfi_def_cfa_register 30
 279 019c 0800C4AF 		sw	$4,8($fp)
  76:../main.c     ****     asm volatile ("mtc0 %0, $12" ::"r"(value));
 280 01a0 00000000 		.loc 1 76 0
 281 01a4 0800C28F 		lw	$2,8($fp)
 282              		#nop
 283              	 #APP
 284 01a8 00000000 	 # 76 "../main.c" 1
 285 01ac 00608240 		mtc0 $2, $12
 286              	 # 0 "" 2
  77:../main.c     **** }
 287              		.loc 1 77 0
 288              	 #NO_APP
 289 01b0 25E8C003 		move	$sp,$fp
 290              	$LCFI14 = .
 291              		.cfi_def_cfa_register 29
 292 01b4 0400BE8F 		lw	$fp,4($sp)
 293 01b8 0800BD27 		addiu	$sp,$sp,8
 294              	$LCFI15 = .
 295              		.cfi_restore 30
 296              		.cfi_def_cfa_offset 0
 297 01bc 0800E003 		j	$31
 297      00000000 
 298              		.end	SetCP0_Status
 299              		.cfi_endproc
 300              	$LFE3:
 302              		.align	2
 303              		.globl	main
 304              	$LFB4 = .
  78:../main.c     **** 
  79:../main.c     **** int main() {
 305              		.loc 1 79 0
 306              		.cfi_startproc
 307              		.set	nomips16
 308              		.ent	main
 310              	main:
 311              		.frame	$fp,32,$31		# vars= 8, regs= 2/0, args= 16, gp= 0
 312              		.mask	0xc0000000,-4
 313              		.fmask	0x00000000,0
 314              		.set	noreorder
 315              		.set	nomacro
 316 01c4 E0FFBD27 		addiu	$sp,$sp,-32
 317              	$LCFI16 = .
 318              		.cfi_def_cfa_offset 32
 319 01c8 1C00BFAF 		sw	$31,28($sp)
 320 01cc 1800BEAF 		sw	$fp,24($sp)
 321              		.cfi_offset 31, -4
 322              		.cfi_offset 30, -8
 323 01d0 25F0A003 		move	$fp,$sp
 324              	$LCFI17 = .
 325              		.cfi_def_cfa_register 30
  80:../main.c     **** 
  81:../main.c     **** 	risc_set_interrupts_vector(int_t);		//–≤—ã—Å—Ç–∞–≤–ª—è–µ—Ç –±–∏—Ç—ã ERL –∏ BEV —Ä–µ–≥–∏—Å—Ç—Ä–∞ st
 326              		.loc 1 81 0
 327 01d4 0000023C 		lui	$2,%hi(int_t)
 328 01d8 0000428C 		lw	$2,%lo(int_t)($2)
 329 01dc 00000000 		nop
 330 01e0 25204000 		move	$4,$2
 331 01e4 0000000C 		jal	risc_set_interrupts_vector
 332 01e8 00000000 		nop
 333              	
  82:../main.c     **** 	risc_enable_interrupt(RISC_INT_IT0,0);	//—Ä–∞–∑—Ä–µ—à–∞–µ—Ç –ø—Ä–µ—Ä—ã–≤–∞–Ω–∏—è —Ç–∏–ø–∞ RISC_INT
 334              		.loc 1 82 0
 335 01ec 15000424 		li	$4,21			# 0x15
 336 01f0 25280000 		move	$5,$0
 337 01f4 0000000C 		jal	risc_enable_interrupt
 338 01f8 00000000 		nop
 339              	
  83:../main.c     **** 	risc_enable_interrupt(RISC_INT_IT1,0);	//—Ä–∞–∑—Ä–µ—à–∞–µ—Ç –ø—Ä–µ—Ä—ã–≤–∞–Ω–∏—è —Ç–∏–ø–∞ RISC_INT
 340              		.loc 1 83 0
 341 01fc 16000424 		li	$4,22			# 0x16
 342 0200 25280000 		move	$5,$0
 343 0204 0000000C 		jal	risc_enable_interrupt
 344 0208 00000000 		nop
 345              	
  84:../main.c     **** 
  85:../main.c     **** 	enum ERL_ERROR error_status_it0 = risc_register_interrupt(int_handler, RISC_INT_IT0);
 346              		.loc 1 85 0
 347 020c 0000023C 		lui	$2,%hi(int_handler)
 348 0210 00004424 		addiu	$4,$2,%lo(int_handler)
 349 0214 15000524 		li	$5,21			# 0x15
 350 0218 0000000C 		jal	risc_register_interrupt
 351 021c 00000000 		nop
 352              	
 353 0220 1000C2AF 		sw	$2,16($fp)
  86:../main.c     **** 	enum ERL_ERROR error_status_it1 = risc_register_interrupt(flash_interrupt_off, RISC_INT_IT1);
 354              		.loc 1 86 0
 355 0224 0000023C 		lui	$2,%hi(flash_interrupt_off)
 356 0228 00004424 		addiu	$4,$2,%lo(flash_interrupt_off)
 357 022c 16000524 		li	$5,22			# 0x16
 358 0230 0000000C 		jal	risc_register_interrupt
 359 0234 00000000 		nop
 360              	
 361 0238 1400C2AF 		sw	$2,20($fp)
  87:../main.c     **** 											//—Ä–µ–≥–∏—Å—Ç—Ä–∏—Ä—É–µ—Ç –æ–±—Ä–∞–±–æ—Ç—á–∏–∫ –ø—Ä–µ—Ä—ã–≤–∞–Ω–∏–π RISC_INT_IT0
  88:../main.c     **** 
  89:../main.c     **** 	risc_it_setup(0x9fff, 2, IT0);			//–∑–∞–¥–∞–µ—Ç –ø–µ—Ä–∏–æ–¥ –∏ –∏—Å—Ç–æ—á–Ω–∏–∫ –ø—Ä–µ—Ä—ã–≤–∞–Ω–
 362              		.loc 1 89 0
 363 023c FF9F0434 		li	$4,40959			# 0x9fff
 364 0240 02000524 		li	$5,2			# 0x2
 365 0244 25300000 		move	$6,$0
 366 0248 0000000C 		jal	risc_it_setup
 367 024c 00000000 		nop
 368              	
  90:../main.c     **** 	risc_it_start(IT0);
 369              		.loc 1 90 0
 370 0250 25200000 		move	$4,$0
 371 0254 0000000C 		jal	risc_it_start
 372 0258 00000000 		nop
 373              	
  91:../main.c     **** 
  92:../main.c     ****     while (interrupt_counter_it1<5);
 374              		.loc 1 92 0
 375 025c 00000000 		nop
 376              	$L10:
 377              		.loc 1 92 0 is_stmt 0 discriminator 1
 378 0260 0000023C 		lui	$2,%hi(interrupt_counter_it1)
 379 0264 0000428C 		lw	$2,%lo(interrupt_counter_it1)($2)
 380 0268 00000000 		nop
 381 026c 05004228 		slt	$2,$2,5
 382 0270 FBFF4014 		bne	$2,$0,$L10
 383 0274 00000000 		nop
 384              	
  93:../main.c     **** 
  94:../main.c     ****     risc_it_stop(IT0);
 385              		.loc 1 94 0 is_stmt 1
 386 0278 25200000 		move	$4,$0
 387 027c 0000000C 		jal	risc_it_stop
 388 0280 00000000 		nop
 389              	
  95:../main.c     **** 
  96:../main.c     ****     if (interrupt_counter_it0 == 5)
 390              		.loc 1 96 0
 391 0284 0000023C 		lui	$2,%hi(interrupt_counter_it0)
 392 0288 0000438C 		lw	$3,%lo(interrupt_counter_it0)($2)
 393 028c 05000224 		li	$2,5			# 0x5
 394 0290 05006214 		bne	$3,$2,$L11
 395 0294 00000000 		nop
 396              	
  97:../main.c     ****     {
  98:../main.c     ****   	  ExitStatus = 0;
 397              		.loc 1 98 0
 398 0298 0000023C 		lui	$2,%hi(ExitStatus)
 399 029c 000040AC 		sw	$0,%lo(ExitStatus)($2)
 400 02a0 AD000008 		j	$L12
 401 02a4 00000000 		nop
 402              	
 403              	$L11:
  99:../main.c     ****     }
 100:../main.c     ****     else
 101:../main.c     ****     {
 102:../main.c     ****   	  ExitStatus=1;
 404              		.loc 1 102 0
 405 02a8 0000023C 		lui	$2,%hi(ExitStatus)
 406 02ac 01000324 		li	$3,1			# 0x1
 407 02b0 000043AC 		sw	$3,%lo(ExitStatus)($2)
 408              	$L12:
 103:../main.c     ****     }
 104:../main.c     **** 
 105:../main.c     ****     return ExitStatus;
 409              		.loc 1 105 0
 410 02b4 0000023C 		lui	$2,%hi(ExitStatus)
 411 02b8 0000428C 		lw	$2,%lo(ExitStatus)($2)
 106:../main.c     **** }
 412              		.loc 1 106 0
 413 02bc 25E8C003 		move	$sp,$fp
 414              	$LCFI18 = .
 415              		.cfi_def_cfa_register 29
 416 02c0 1C00BF8F 		lw	$31,28($sp)
 417 02c4 1800BE8F 		lw	$fp,24($sp)
 418 02c8 2000BD27 		addiu	$sp,$sp,32
 419              	$LCFI19 = .
 420              		.cfi_restore 30
 421              		.cfi_restore 31
 422              		.cfi_def_cfa_offset 0
 423 02cc 0800E003 		j	$31
 424 02d0 00000000 		nop
 425              	
 426              		.set	macro
 427              		.set	reorder
 428              		.end	main
 429              		.cfi_endproc
 430              	$LFE4:
 432              	$Letext0:
 433              		.file 2 "../risc_runtime/interrupt_mc30sf6.h"
 434              		.file 3 "../risc_runtime/risc_interrupt.h"
 435              		.file 4 "../risc_runtime/erlcommon.h"